; Function Attrs: nounwind uwtable
define ptr @Abc_NtkRetimeBackwardInitialStart(ptr noundef readonly captures(none) %0) local_unnamed_addr #0 {
  %2 = tail call ptr @Abc_NtkAlloc(i32 noundef 2, i32 noundef 1, i32 noundef 1) #15
  %3 = getelementptr inbounds nuw i8, ptr %0, i64 32
  %4 = load ptr, ptr %3, align 8, !tbaa !45
  %5 = getelementptr i8, ptr %4, i64 4
  %.val12 = load i32, ptr %5, align 4, !tbaa !34
  %6 = icmp sgt i32 %.val12, 0
  br i1 %6, label %.lr.ph, label %.critedge

.lr.ph:                                           ; preds = %1, %18
  %7 = phi ptr [ %19, %18 ], [ %4, %1 ]
  %indvars.iv = phi i64 [ %indvars.iv.next, %18 ], [ 0, %1 ]
  %8 = getelementptr i8, ptr %7, i64 8
  %.val10.val = load ptr, ptr %8, align 8, !tbaa !36
  %9 = getelementptr inbounds nuw ptr, ptr %.val10.val, i64 %indvars.iv
  %10 = load ptr, ptr %9, align 8, !tbaa !37
  %11 = icmp eq ptr %10, null
  br i1 %11, label %18, label %12

12:                                               ; preds = %.lr.ph
  %13 = getelementptr i8, ptr %10, i64 20
  %.val11 = load i32, ptr %13, align 4
  %14 = and i32 %.val11, 15
  %.not = icmp eq i32 %14, 8
  br i1 %.not, label %15, label %18

15:                                               ; preds = %12
  %16 = tail call ptr @Abc_NtkCreateObj(ptr noundef %2, i32 noundef 3) #15
  %17 = getelementptr inbounds nuw i8, ptr %10, i64 64
  store ptr %16, ptr %17, align 8, !tbaa !38
  %.pre = load ptr, ptr %3, align 8, !tbaa !45
  br label %18

18:                                               ; preds = %.lr.ph, %15, %12
  %19 = phi ptr [ %7, %.lr.ph ], [ %.pre, %15 ], [ %7, %12 ]
  %indvars.iv.next = add nuw nsw i64 %indvars.iv, 1
  %20 = getelementptr i8, ptr %19, i64 4
  %.val = load i32, ptr %20, align 4, !tbaa !34
  %21 = sext i32 %.val to i64
  %22 = icmp slt i64 %indvars.iv.next, %21
  br i1 %22, label %.lr.ph, label %.critedge, !llvm.loop !62

.critedge:                                        ; preds = %18, %1
  ret ptr %2
}